; Function Attrs: null_pointer_is_valid sspstrong uwtable
define internal fastcc noundef i32 @dissect_query_afp_with_did(ptr noundef %0, ptr noundef %1) unnamed_addr #1 {
  %3 = load i32, ptr @hf_afp_pad, align 4
  %4 = tail call ptr @proto_tree_add_item(ptr noundef %1, i32 noundef %3, ptr noundef %0, i32 noundef 1, i32 noundef 1, i32 noundef 0)
  %5 = tail call zeroext i16 @tvb_get_ntohs(ptr noundef %0, i32 noundef 2)
  %6 = zext i16 %5 to i32
  store i32 %6, ptr @Vol, align 4
  %7 = load i32, ptr @hf_afp_vol_id, align 4
  %8 = tail call ptr @proto_tree_add_item(ptr noundef %1, i32 noundef %7, ptr noundef %0, i32 noundef 2, i32 noundef 2, i32 noundef 0)
  %9 = tail call i32 @tvb_get_ntohl(ptr noundef %0, i32 noundef 4)
  store i32 %9, ptr @Did, align 4
  %10 = load i32, ptr @hf_afp_did, align 4
  %11 = tail call ptr @proto_tree_add_item(ptr noundef %1, i32 noundef %10, ptr noundef %0, i32 noundef 4, i32 noundef 4, i32 noundef 0)
  %12 = load i32, ptr @hf_afp_did, align 4
  %13 = tail call ptr @proto_tree_add_item(ptr noundef %1, i32 noundef %12, ptr noundef %0, i32 noundef 8, i32 noundef 4, i32 noundef 0)
  ret i32 12
}